ccopy_reg
_reconstructor
p0
(cgoogle.oauth2.credentials
Credentials
p1
c__builtin__
object
p2
Ntp3
Rp4
(dp5
S'_quota_project_id'
p6
NsS'_token_uri'
p7
Vhttps://oauth2.googleapis.com/token
p8
sS'_client_secret'
p9
VW49hmxvaj_EXUWxUs9iILzOK
p10
sS'_id_token'
p11
NsS'token'
p12
Vya29.a0Adw1xeUVGJ-iRsmMdN_K9cBxTJ51S7ZwI7Nn2wcl7aKKSKjp8G_4QXwv7PC0oRI6giB5CXDFji45jEc4ny9DFIp1TqbUIu71-wROG-mwwyzikOlzrb2wSScSM9g4ZJLGopucS0bw_x8bbWx-kRy5pAY_JWzktXYryFRD
p13
sS'_refresh_token'
p14
V1//0hRvx08kouNdnCgYIARAAGBESNwF-L9Ir64HrjzpFsw31BmHFCZ7N2xkKOKD0ICKafKjmO7xvOzhNKrfhUi352kblHrQttJ6yeMQ
p15
sS'_scopes'
p16
(lp17
S'https://www.googleapis.com/auth/calendar.readonly'
p18
asS'_client_id'
p19
V506665912589-s28e85kf0ng7i0e3iq1u1a4qujmfsvpm.apps.googleusercontent.com
p20
sS'expiry'
p21
cdatetime
datetime
p22
(S'\x07\xe4\x03\x1b\x01\x13\x04\x05\t\xdb'
p23
tp24
Rp25
sb.